; ModuleID = '13/1403.c'
source_filename = "13/1403.c"
target datalayout = "e-m:e-p270:32:32-p271:32:32-p272:64:64-i64:64-f80:128-n8:16:32:64-S128"
target triple = "x86_64-pc-linux-gnu"

@.str = private unnamed_addr constant [3 x i8] c"%d\00", align 1
@.str.1 = private unnamed_addr constant [4 x i8] c"%d \00", align 1

; Function Attrs: noinline nounwind uwtable
define dso_local i32 @main() #0 {
  %1 = alloca i32, align 4
  %2 = alloca [20000 x i32], align 16
  %3 = alloca i32, align 4
  %4 = alloca i32, align 4
  %5 = alloca i32, align 4
  %6 = alloca i32, align 4
  %7 = alloca i32, align 4
  store i32 0, i32* %1, align 4
  %8 = call i32 (i8*, ...) @__isoc99_scanf(i8* getelementptr inbounds ([3 x i8], [3 x i8]* @.str, i64 0, i64 0), i32* %4)
  %9 = load i32, i32* %4, align 4
  store i32 %9, i32* %7, align 4
  store i32 0, i32* %3, align 4
  br label %10

10:                                               ; preds = %19, %0
  %11 = load i32, i32* %3, align 4
  %12 = load i32, i32* %4, align 4
  %13 = icmp slt i32 %11, %12
  br i1 %13, label %14, label %22

14:                                               ; preds = %10
  %15 = load i32, i32* %3, align 4
  %16 = sext i32 %15 to i64
  %17 = getelementptr inbounds [20000 x i32], [20000 x i32]* %2, i64 0, i64 %16
  %18 = call i32 (i8*, ...) @__isoc99_scanf(i8* getelementptr inbounds ([3 x i8], [3 x i8]* @.str, i64 0, i64 0), i32* %17)
  br label %19

19:                                               ; preds = %14
  %20 = load i32, i32* %3, align 4
  %21 = add nsw i32 %20, 1
  store i32 %21, i32* %3, align 4
  br label %10

22:                                               ; preds = %10
  store i32 0, i32* %3, align 4
  br label %23

23:                                               ; preds = %70, %22
  %24 = load i32, i32* %3, align 4
  %25 = load i32, i32* %4, align 4
  %26 = icmp slt i32 %24, %25
  br i1 %26, label %27, label %73

27:                                               ; preds = %23
  store i32 0, i32* %5, align 4
  br label %28

28:                                               ; preds = %66, %27
  %29 = load i32, i32* %5, align 4
  %30 = load i32, i32* %3, align 4
  %31 = icmp slt i32 %29, %30
  br i1 %31, label %32, label %69

32:                                               ; preds = %28
  %33 = load i32, i32* %3, align 4
  %34 = sext i32 %33 to i64
  %35 = getelementptr inbounds [20000 x i32], [20000 x i32]* %2, i64 0, i64 %34
  %36 = load i32, i32* %35, align 4
  %37 = load i32, i32* %5, align 4
  %38 = sext i32 %37 to i64
  %39 = getelementptr inbounds [20000 x i32], [20000 x i32]* %2, i64 0, i64 %38
  %40 = load i32, i32* %39, align 4
  %41 = icmp eq i32 %36, %40
  br i1 %41, label %42, label %65

42:                                               ; preds = %32
  %43 = load i32, i32* %4, align 4
  %44 = add nsw i32 %43, -1
  store i32 %44, i32* %4, align 4
  %45 = load i32, i32* %3, align 4
  store i32 %45, i32* %6, align 4
  br label %46

46:                                               ; preds = %59, %42
  %47 = load i32, i32* %6, align 4
  %48 = load i32, i32* %4, align 4
  %49 = icmp slt i32 %47, %48
  br i1 %49, label %50, label %62

50:                                               ; preds = %46
  %51 = load i32, i32* %6, align 4
  %52 = add nsw i32 %51, 1
  %53 = sext i32 %52 to i64
  %54 = getelementptr inbounds [20000 x i32], [20000 x i32]* %2, i64 0, i64 %53
  %55 = load i32, i32* %54, align 4
  %56 = load i32, i32* %6, align 4
  %57 = sext i32 %56 to i64
  %58 = getelementptr inbounds [20000 x i32], [20000 x i32]* %2, i64 0, i64 %57
  store i32 %55, i32* %58, align 4
  br label %59

59:                                               ; preds = %50
  %60 = load i32, i32* %6, align 4
  %61 = add nsw i32 %60, 1
  store i32 %61, i32* %6, align 4
  br label %46

62:                                               ; preds = %46
  %63 = load i32, i32* %3, align 4
  %64 = add nsw i32 %63, -1
  store i32 %64, i32* %3, align 4
  br label %65

65:                                               ; preds = %62, %32
  br label %66

66:                                               ; preds = %65
  %67 = load i32, i32* %5, align 4
  %68 = add nsw i32 %67, 1
  store i32 %68, i32* %5, align 4
  br label %28

69:                                               ; preds = %28
  br label %70

70:                                               ; preds = %69
  %71 = load i32, i32* %3, align 4
  %72 = add nsw i32 %71, 1
  store i32 %72, i32* %3, align 4
  br label %23

73:                                               ; preds = %23
  store i32 0, i32* %3, align 4
  br label %74

74:                                               ; preds = %97, %73
  %75 = load i32, i32* %3, align 4
  %76 = load i32, i32* %4, align 4
  %77 = icmp slt i32 %75, %76
  br i1 %77, label %78, label %100

78:                                               ; preds = %74
  %79 = load i32, i32* %3, align 4
  %80 = load i32, i32* %4, align 4
  %81 = sub nsw i32 %80, 1
  %82 = icmp slt i32 %79, %81
  br i1 %82, label %83, label %89

83:                                               ; preds = %78
  %84 = load i32, i32* %3, align 4
  %85 = sext i32 %84 to i64
  %86 = getelementptr inbounds [20000 x i32], [20000 x i32]* %2, i64 0, i64 %85
  %87 = load i32, i32* %86, align 4
  %88 = call i32 (i8*, ...) @printf(i8* getelementptr inbounds ([4 x i8], [4 x i8]* @.str.1, i64 0, i64 0), i32 %87)
  br label %96

89:                                               ; preds = %78
  %90 = load i32, i32* %4, align 4
  %91 = sub nsw i32 %90, 1
  %92 = sext i32 %91 to i64
  %93 = getelementptr inbounds [20000 x i32], [20000 x i32]* %2, i64 0, i64 %92
  %94 = load i32, i32* %93, align 4
  %95 = call i32 (i8*, ...) @printf(i8* getelementptr inbounds ([3 x i8], [3 x i8]* @.str, i64 0, i64 0), i32 %94)
  br label %96

96:                                               ; preds = %89, %83
  br label %97

97:                                               ; preds = %96
  %98 = load i32, i32* %3, align 4
  %99 = add nsw i32 %98, 1
  store i32 %99, i32* %3, align 4
  br label %74

100:                                              ; preds = %74
  ret i32 0
}

declare dso_local i32 @__isoc99_scanf(i8*, ...) #1

declare dso_local i32 @printf(i8*, ...) #1


!llvm.module.flags = !{!0}
!llvm.ident = !{!1}

!0 = !{i32 1, !"wchar_size", i32 4}
!1 = !{!"clang version 10.0.0-4ubuntu1 "}
