; ModuleID = 'source-C-CXX/12/1403.c'
source_filename = "source-C-CXX/12/1403.c"
target datalayout = "e-m:e-p270:32:32-p271:32:32-p272:64:64-i64:64-f80:128-n8:16:32:64-S128"
target triple = "x86_64-pc-linux-gnu"

@.str = private unnamed_addr constant [3 x i8] c"%d\00", align 1
@.str.1 = private unnamed_addr constant [4 x i8] c"%d \00", align 1

; Function Attrs: nofree nounwind sspstrong uwtable
define dso_local i32 @main() local_unnamed_addr #0 {
  %1 = alloca [20000 x i32], align 16
  %2 = alloca i32, align 4
  %3 = bitcast [20000 x i32]* %1 to i8*
  call void @llvm.lifetime.start.p0i8(i64 80000, i8* nonnull %3) #3
  %4 = bitcast i32* %2 to i8*
  call void @llvm.lifetime.start.p0i8(i64 4, i8* nonnull %4) #3
  %5 = call i32 (i8*, ...) @__isoc99_scanf(i8* getelementptr inbounds ([3 x i8], [3 x i8]* @.str, i64 0, i64 0), i32* nonnull %2)
  %6 = load i32, i32* %2, align 4, !tbaa !5
  %7 = icmp sgt i32 %6, 0
  br i1 %7, label %10, label %140

8:                                                ; preds = %10
  %9 = icmp sgt i32 %15, 0
  br i1 %9, label %18, label %140

10:                                               ; preds = %0, %10
  %11 = phi i64 [ %14, %10 ], [ 0, %0 ]
  %12 = getelementptr inbounds [20000 x i32], [20000 x i32]* %1, i64 0, i64 %11
  %13 = call i32 (i8*, ...) @__isoc99_scanf(i8* getelementptr inbounds ([3 x i8], [3 x i8]* @.str, i64 0, i64 0), i32* nonnull %12)
  %14 = add nuw nsw i64 %11, 1
  %15 = load i32, i32* %2, align 4, !tbaa !5
  %16 = sext i32 %15 to i64
  %17 = icmp slt i64 %14, %16
  br i1 %17, label %10, label %8, !llvm.loop !9

18:                                               ; preds = %8, %120
  %19 = phi i32 [ %121, %120 ], [ %15, %8 ]
  %20 = phi i32 [ %123, %120 ], [ 0, %8 ]
  %21 = icmp sgt i32 %20, 0
  br i1 %21, label %24, label %120

22:                                               ; preds = %120
  %23 = icmp sgt i32 %121, 0
  br i1 %23, label %125, label %140

24:                                               ; preds = %18, %113
  %25 = phi i32 [ %115, %113 ], [ %19, %18 ]
  %26 = phi i32 [ %116, %113 ], [ %19, %18 ]
  %27 = phi i64 [ %118, %113 ], [ 0, %18 ]
  %28 = phi i32 [ %117, %113 ], [ %20, %18 ]
  %29 = sext i32 %28 to i64
  %30 = getelementptr inbounds [20000 x i32], [20000 x i32]* %1, i64 0, i64 %29
  %31 = load i32, i32* %30, align 4, !tbaa !5
  %32 = getelementptr inbounds [20000 x i32], [20000 x i32]* %1, i64 0, i64 %27
  %33 = load i32, i32* %32, align 4, !tbaa !5
  %34 = icmp eq i32 %31, %33
  br i1 %34, label %35, label %113

35:                                               ; preds = %24
  %36 = add i32 %26, -1
  store i32 %36, i32* %2, align 4, !tbaa !5
  %37 = icmp slt i32 %28, %36
  br i1 %37, label %38, label %110

38:                                               ; preds = %35
  %39 = sext i32 %36 to i64
  %40 = sub nsw i64 %39, %29
  %41 = icmp ult i64 %40, 8
  br i1 %41, label %101, label %42

42:                                               ; preds = %38
  %43 = and i64 %40, -8
  %44 = add nsw i64 %43, %29
  %45 = add nsw i64 %43, -8
  %46 = lshr exact i64 %45, 3
  %47 = add nuw nsw i64 %46, 1
  %48 = and i64 %47, 1
  %49 = icmp eq i64 %45, 0
  br i1 %49, label %83, label %50

50:                                               ; preds = %42
  %51 = and i64 %47, 4611686018427387902
  br label %52

52:                                               ; preds = %52, %50
  %53 = phi i64 [ 0, %50 ], [ %80, %52 ]
  %54 = phi i64 [ %51, %50 ], [ %81, %52 ]
  %55 = add i64 %53, %29
  %56 = add nsw i64 %55, 1
  %57 = getelementptr inbounds [20000 x i32], [20000 x i32]* %1, i64 0, i64 %56
  %58 = bitcast i32* %57 to <4 x i32>*
  %59 = load <4 x i32>, <4 x i32>* %58, align 4, !tbaa !5
  %60 = getelementptr inbounds i32, i32* %57, i64 4
  %61 = bitcast i32* %60 to <4 x i32>*
  %62 = load <4 x i32>, <4 x i32>* %61, align 4, !tbaa !5
  %63 = getelementptr inbounds [20000 x i32], [20000 x i32]* %1, i64 0, i64 %55
  %64 = bitcast i32* %63 to <4 x i32>*
  store <4 x i32> %59, <4 x i32>* %64, align 4, !tbaa !5
  %65 = getelementptr inbounds i32, i32* %63, i64 4
  %66 = bitcast i32* %65 to <4 x i32>*
  store <4 x i32> %62, <4 x i32>* %66, align 4, !tbaa !5
  %67 = or i64 %53, 8
  %68 = add i64 %67, %29
  %69 = add nsw i64 %68, 1
  %70 = getelementptr inbounds [20000 x i32], [20000 x i32]* %1, i64 0, i64 %69
  %71 = bitcast i32* %70 to <4 x i32>*
  %72 = load <4 x i32>, <4 x i32>* %71, align 4, !tbaa !5
  %73 = getelementptr inbounds i32, i32* %70, i64 4
  %74 = bitcast i32* %73 to <4 x i32>*
  %75 = load <4 x i32>, <4 x i32>* %74, align 4, !tbaa !5
  %76 = getelementptr inbounds [20000 x i32], [20000 x i32]* %1, i64 0, i64 %68
  %77 = bitcast i32* %76 to <4 x i32>*
  store <4 x i32> %72, <4 x i32>* %77, align 4, !tbaa !5
  %78 = getelementptr inbounds i32, i32* %76, i64 4
  %79 = bitcast i32* %78 to <4 x i32>*
  store <4 x i32> %75, <4 x i32>* %79, align 4, !tbaa !5
  %80 = add nuw i64 %53, 16
  %81 = add i64 %54, -2
  %82 = icmp eq i64 %81, 0
  br i1 %82, label %83, label %52, !llvm.loop !11

83:                                               ; preds = %52, %42
  %84 = phi i64 [ 0, %42 ], [ %80, %52 ]
  %85 = icmp eq i64 %48, 0
  br i1 %85, label %99, label %86

86:                                               ; preds = %83
  %87 = add i64 %84, %29
  %88 = add nsw i64 %87, 1
  %89 = getelementptr inbounds [20000 x i32], [20000 x i32]* %1, i64 0, i64 %88
  %90 = bitcast i32* %89 to <4 x i32>*
  %91 = load <4 x i32>, <4 x i32>* %90, align 4, !tbaa !5
  %92 = getelementptr inbounds i32, i32* %89, i64 4
  %93 = bitcast i32* %92 to <4 x i32>*
  %94 = load <4 x i32>, <4 x i32>* %93, align 4, !tbaa !5
  %95 = getelementptr inbounds [20000 x i32], [20000 x i32]* %1, i64 0, i64 %87
  %96 = bitcast i32* %95 to <4 x i32>*
  store <4 x i32> %91, <4 x i32>* %96, align 4, !tbaa !5
  %97 = getelementptr inbounds i32, i32* %95, i64 4
  %98 = bitcast i32* %97 to <4 x i32>*
  store <4 x i32> %94, <4 x i32>* %98, align 4, !tbaa !5
  br label %99

99:                                               ; preds = %83, %86
  %100 = icmp eq i64 %40, %43
  br i1 %100, label %110, label %101

101:                                              ; preds = %38, %99
  %102 = phi i64 [ %29, %38 ], [ %44, %99 ]
  br label %103

103:                                              ; preds = %101, %103
  %104 = phi i64 [ %105, %103 ], [ %102, %101 ]
  %105 = add nsw i64 %104, 1
  %106 = getelementptr inbounds [20000 x i32], [20000 x i32]* %1, i64 0, i64 %105
  %107 = load i32, i32* %106, align 4, !tbaa !5
  %108 = getelementptr inbounds [20000 x i32], [20000 x i32]* %1, i64 0, i64 %104
  store i32 %107, i32* %108, align 4, !tbaa !5
  %109 = icmp eq i64 %105, %39
  br i1 %109, label %110, label %103, !llvm.loop !13

110:                                              ; preds = %103, %99, %35
  %111 = add nsw i32 %28, -1
  %112 = sext i32 %111 to i64
  br label %113

113:                                              ; preds = %24, %110
  %114 = phi i64 [ %29, %24 ], [ %112, %110 ]
  %115 = phi i32 [ %25, %24 ], [ %36, %110 ]
  %116 = phi i32 [ %26, %24 ], [ %36, %110 ]
  %117 = phi i32 [ %28, %24 ], [ %111, %110 ]
  %118 = add nuw nsw i64 %27, 1
  %119 = icmp slt i64 %118, %114
  br i1 %119, label %24, label %120, !llvm.loop !15

120:                                              ; preds = %113, %18
  %121 = phi i32 [ %19, %18 ], [ %115, %113 ]
  %122 = phi i32 [ %20, %18 ], [ %117, %113 ]
  %123 = add nsw i32 %122, 1
  %124 = icmp slt i32 %123, %121
  br i1 %124, label %18, label %22, !llvm.loop !16

125:                                              ; preds = %22, %125
  %126 = phi i64 [ %136, %125 ], [ 0, %22 ]
  %127 = phi i32 [ %137, %125 ], [ %121, %22 ]
  %128 = add nsw i32 %127, -1
  %129 = sext i32 %128 to i64
  %130 = icmp slt i64 %126, %129
  %131 = select i1 %130, i64 %126, i64 %129
  %132 = select i1 %130, i8* getelementptr inbounds ([4 x i8], [4 x i8]* @.str.1, i64 0, i64 0), i8* getelementptr inbounds ([3 x i8], [3 x i8]* @.str, i64 0, i64 0)
  %133 = getelementptr inbounds [20000 x i32], [20000 x i32]* %1, i64 0, i64 %131
  %134 = load i32, i32* %133, align 4, !tbaa !5
  %135 = call i32 (i8*, ...) @printf(i8* nonnull dereferenceable(1) %132, i32 %134)
  %136 = add nuw nsw i64 %126, 1
  %137 = load i32, i32* %2, align 4, !tbaa !5
  %138 = sext i32 %137 to i64
  %139 = icmp slt i64 %136, %138
  br i1 %139, label %125, label %140, !llvm.loop !17

140:                                              ; preds = %125, %0, %8, %22
  call void @llvm.lifetime.end.p0i8(i64 4, i8* nonnull %4) #3
  call void @llvm.lifetime.end.p0i8(i64 80000, i8* nonnull %3) #3
  ret i32 0
}

; Function Attrs: argmemonly mustprogress nofree nosync nounwind willreturn
declare void @llvm.lifetime.start.p0i8(i64 immarg, i8* nocapture) #1

; Function Attrs: nofree nounwind
declare noundef i32 @__isoc99_scanf(i8* nocapture noundef readonly, ...) local_unnamed_addr #2

; Function Attrs: nofree nounwind
declare noundef i32 @printf(i8* nocapture noundef readonly, ...) local_unnamed_addr #2

; Function Attrs: argmemonly mustprogress nofree nosync nounwind willreturn
declare void @llvm.lifetime.end.p0i8(i64 immarg, i8* nocapture) #1


!llvm.module.flags = !{!0, !1, !2, !3}
!llvm.ident = !{!4}

!0 = !{i32 1, !"wchar_size", i32 4}
!1 = !{i32 7, !"PIC Level", i32 2}
!2 = !{i32 7, !"PIE Level", i32 2}
!3 = !{i32 7, !"uwtable", i32 1}
!4 = !{!"clang version 13.0.0"}
!5 = !{!6, !6, i64 0}
!6 = !{!"int", !7, i64 0}
!7 = !{!"omnipotent char", !8, i64 0}
!8 = !{!"Simple C/C++ TBAA"}
!9 = distinct !{!9, !10}
!10 = !{!"llvm.loop.mustprogress"}
!11 = distinct !{!11, !10, !12}
!12 = !{!"llvm.loop.isvectorized", i32 1}
!13 = distinct !{!13, !10, !14, !12}
!14 = !{!"llvm.loop.unroll.runtime.disable"}
!15 = distinct !{!15, !10}
!16 = distinct !{!16, !10}
!17 = distinct !{!17, !10}
